(dp0
S'files'
p1
(lp2
S'test_data/Mega Man/1.mid'
p3
aS'test_data/Mega Man 2/1.mid'
p4
aS'test_data/Mega Man 2/2.mid'
p5
asg4
(dp6
I1
F442.7218628152791
sI2
F793.7039091423014
sI3
F1147.226046573897
sI4
F1445.6490747214611
sI5
F1699.0294492397334
sI6
F1931.597865016913
sI7
F2105.683570946636
sI8
F2231.860712459711
sI9
F2318.544763129843
sI10
F2379.7868349685723
sI11
F2413.8688298516636
sI12
F2417.6754923414337
sI13
F2417.6754923414337
sI14
F2417.6754923414337
sI15
F2417.6754923414337
sI16
F2417.6754923414337
sI17
F2417.6754923414337
sI18
F2417.6754923414337
sI19
F2417.6754923414337
sI20
F2417.6754923414337
sI21
F2417.6754923414337
sI22
F2417.6754923414337
sI23
F2417.6754923414337
sI24
F2417.6754923414337
sI25
F2417.6754923414337
sI26
F2417.6754923414337
sI27
F2417.6754923414337
sI28
F2417.6754923414337
sI29
F2417.6754923414337
sI30
F2417.6754923414337
sI31
F2417.6754923414337
sI32
F2417.6754923414337
ssS'counts'
p7
(dp8
sg5
(dp9
I1
F344.3324880790589
sI2
F492.5666908433094
sI3
F630.7129389482046
sI4
F744.8100578000292
sI5
F830.1556048090684
sI6
F894.2132636943426
sI7
F940.1196396500336
sI8
F974.6802783743497
sI9
F983.1364468639281
sI10
F986.0268186218243
sI11
F986.0268186218243
sI12
F986.0268186218243
sI13
F986.0268186218243
sI14
F986.0268186218243
sI15
F986.0268186218243
sI16
F986.0268186218243
sI17
F986.0268186218243
sI18
F986.0268186218243
sI19
F986.0268186218243
sI20
F986.0268186218243
sI21
F986.0268186218243
sI22
F986.0268186218243
sI23
F986.0268186218243
sI24
F986.0268186218243
sI25
F986.0268186218243
sI26
F986.0268186218243
sI27
F986.0268186218243
sI28
F986.0268186218243
sI29
F986.0268186218243
sI30
F986.0268186218243
sI31
F986.0268186218243
sI32
F986.0268186218243
ssg3
(dp10
I1
F55.305867103250755
sI2
F132.01901284272208
sI3
F196.56542058823328
sI4
F301.3911691209507
sI5
F436.58395376541415
sI6
F543.328619571646
sI7
F620.2314797784175
sI8
F663.8997521536905
sI9
F663.8997521536905
sI10
F663.8997521536905
sI11
F663.8997521536905
sI12
F663.8997521536905
sI13
F663.8997521536905
sI14
F663.8997521536905
sI15
F663.8997521536905
sI16
F663.8997521536905
sI17
F663.8997521536905
sI18
F663.8997521536905
sI19
F663.8997521536905
sI20
F663.8997521536905
sI21
F663.8997521536905
sI22
F663.8997521536905
sI23
F663.8997521536905
sI24
F663.8997521536905
sI25
F663.8997521536905
sI26
F663.8997521536905
sI27
F663.8997521536905
sI28
F663.8997521536905
sI29
F663.8997521536905
sI30
F663.8997521536905
sI31
F663.8997521536905
sI32
F663.8997521536905
ss.